
matmult.elf:     file format elf32-littleriscv


Disassembly of section .vectors:

00100000 <_vectors_start>:
  100000:	4570006f          	j	100c56 <default_exc_handler>
  100004:	4530006f          	j	100c56 <default_exc_handler>
  100008:	44f0006f          	j	100c56 <default_exc_handler>
  10000c:	44b0006f          	j	100c56 <default_exc_handler>
  100010:	4470006f          	j	100c56 <default_exc_handler>
  100014:	4430006f          	j	100c56 <default_exc_handler>
  100018:	43f0006f          	j	100c56 <default_exc_handler>
  10001c:	43f0006f          	j	100c5a <timer_handler>
  100020:	4370006f          	j	100c56 <default_exc_handler>
  100024:	4330006f          	j	100c56 <default_exc_handler>
  100028:	42f0006f          	j	100c56 <default_exc_handler>
  10002c:	42b0006f          	j	100c56 <default_exc_handler>
  100030:	4270006f          	j	100c56 <default_exc_handler>
  100034:	4230006f          	j	100c56 <default_exc_handler>
  100038:	41f0006f          	j	100c56 <default_exc_handler>
  10003c:	41b0006f          	j	100c56 <default_exc_handler>
  100040:	4170006f          	j	100c56 <default_exc_handler>
  100044:	4130006f          	j	100c56 <default_exc_handler>
  100048:	40f0006f          	j	100c56 <default_exc_handler>
  10004c:	40b0006f          	j	100c56 <default_exc_handler>
  100050:	4070006f          	j	100c56 <default_exc_handler>
  100054:	4030006f          	j	100c56 <default_exc_handler>
  100058:	3ff0006f          	j	100c56 <default_exc_handler>
  10005c:	3fb0006f          	j	100c56 <default_exc_handler>
  100060:	3f70006f          	j	100c56 <default_exc_handler>
  100064:	3f30006f          	j	100c56 <default_exc_handler>
  100068:	3ef0006f          	j	100c56 <default_exc_handler>
  10006c:	3eb0006f          	j	100c56 <default_exc_handler>
  100070:	3e70006f          	j	100c56 <default_exc_handler>
  100074:	3e30006f          	j	100c56 <default_exc_handler>
  100078:	3df0006f          	j	100c56 <default_exc_handler>
  10007c:	0000                	vmsge.vx	v0,v0,zero,v0.t
  10007e:	0000                	vmsge.vx	v0,v0,zero,v0.t
  100080:	3df0006f          	j	100c5e <reset_handler>

Disassembly of section .text:

00100084 <generate_matrices>:
  100084:	ca29                	beqz	a2,1000d6 <generate_matrices+0x52>
  100086:	caa1                	beqz	a3,1000d6 <generate_matrices+0x52>
  100088:	00d50e33          	add	t3,a0,a3
  10008c:	4281                	li	t0,0
  10008e:	4f81                	li	t6,0
  100090:	4f01                	li	t5,0
  100092:	4805                	li	a6,1
  100094:	04100e93          	li	t4,65
  100098:	01f507b3          	add	a5,a0,t6
  10009c:	005588b3          	add	a7,a1,t0
  1000a0:	a031                	j	1000ac <generate_matrices+0x28>
  1000a2:	0785                	add	a5,a5,1
  1000a4:	0805                	add	a6,a6,1
  1000a6:	0885                	add	a7,a7,1
  1000a8:	03c78163          	beq	a5,t3,1000ca <generate_matrices+0x46>
  1000ac:	01881313          	sll	t1,a6,0x18
  1000b0:	41835313          	sra	t1,t1,0x18
  1000b4:	00678023          	sb	t1,0(a5)
  1000b8:	00688023          	sb	t1,0(a7)
  1000bc:	ffd813e3          	bne	a6,t4,1000a2 <generate_matrices+0x1e>
  1000c0:	0785                	add	a5,a5,1
  1000c2:	4805                	li	a6,1
  1000c4:	0885                	add	a7,a7,1
  1000c6:	ffc793e3          	bne	a5,t3,1000ac <generate_matrices+0x28>
  1000ca:	0f05                	add	t5,t5,1
  1000cc:	9e36                	add	t3,t3,a3
  1000ce:	9fb6                	add	t6,t6,a3
  1000d0:	92ba                	add	t0,t0,a4
  1000d2:	fde613e3          	bne	a2,t5,100098 <generate_matrices+0x14>
  1000d6:	8082                	ret

001000d8 <is_equal>:
  1000d8:	02d60633          	mul	a2,a2,a3
  1000dc:	c215                	beqz	a2,100100 <is_equal+0x28>
  1000de:	4781                	li	a5,0
  1000e0:	a021                	j	1000e8 <is_equal+0x10>
  1000e2:	0591                	add	a1,a1,4
  1000e4:	00c78e63          	beq	a5,a2,100100 <is_equal+0x28>
  1000e8:	00052803          	lw	a6,0(a0)
  1000ec:	4198                	lw	a4,0(a1)
  1000ee:	0785                	add	a5,a5,1
  1000f0:	0511                	add	a0,a0,4
  1000f2:	fee808e3          	beq	a6,a4,1000e2 <is_equal+0xa>
  1000f6:	00001517          	auipc	a0,0x1
  1000fa:	c7a50513          	add	a0,a0,-902 # 100d70 <main+0xb2>
  1000fe:	a481                	j	10033e <puts>
  100100:	00001517          	auipc	a0,0x1
  100104:	c8c50513          	add	a0,a0,-884 # 100d8c <main+0xce>
  100108:	ac1d                	j	10033e <puts>

0010010a <print_matrix_byte>:
  10010a:	c1ad                	beqz	a1,10016c <print_matrix_byte+0x62>
  10010c:	1101                	add	sp,sp,-32
  10010e:	c84a                	sw	s2,16(sp)
  100110:	ce06                	sw	ra,28(sp)
  100112:	8932                	mv	s2,a2
  100114:	ca21                	beqz	a2,100164 <print_matrix_byte+0x5a>
  100116:	ca26                	sw	s1,20(sp)
  100118:	c64e                	sw	s3,12(sp)
  10011a:	c452                	sw	s4,8(sp)
  10011c:	c256                	sw	s5,4(sp)
  10011e:	cc22                	sw	s0,24(sp)
  100120:	8aae                	mv	s5,a1
  100122:	84aa                	mv	s1,a0
  100124:	4a01                	li	s4,0
  100126:	fff60993          	add	s3,a2,-1
  10012a:	4401                	li	s0,0
  10012c:	a021                	j	100134 <print_matrix_byte+0x2a>
  10012e:	0405                	add	s0,s0,1
  100130:	03240163          	beq	s0,s2,100152 <print_matrix_byte+0x48>
  100134:	008487b3          	add	a5,s1,s0
  100138:	0007c503          	lbu	a0,0(a5)
  10013c:	2119                	jal	100542 <putbyte>
  10013e:	02000513          	li	a0,32
  100142:	2ac5                	jal	100332 <putchar>
  100144:	ff3415e3          	bne	s0,s3,10012e <print_matrix_byte+0x24>
  100148:	4529                	li	a0,10
  10014a:	0405                	add	s0,s0,1
  10014c:	22dd                	jal	100332 <putchar>
  10014e:	ff2413e3          	bne	s0,s2,100134 <print_matrix_byte+0x2a>
  100152:	0a05                	add	s4,s4,1
  100154:	94ca                	add	s1,s1,s2
  100156:	fd4a9ae3          	bne	s5,s4,10012a <print_matrix_byte+0x20>
  10015a:	4462                	lw	s0,24(sp)
  10015c:	44d2                	lw	s1,20(sp)
  10015e:	49b2                	lw	s3,12(sp)
  100160:	4a22                	lw	s4,8(sp)
  100162:	4a92                	lw	s5,4(sp)
  100164:	40f2                	lw	ra,28(sp)
  100166:	4942                	lw	s2,16(sp)
  100168:	6105                	add	sp,sp,32
  10016a:	8082                	ret
  10016c:	8082                	ret

0010016e <print_matrix_half>:
  10016e:	c9ad                	beqz	a1,1001e0 <print_matrix_half+0x72>
  100170:	7179                	add	sp,sp,-48
  100172:	d04a                	sw	s2,32(sp)
  100174:	d606                	sw	ra,44(sp)
  100176:	8932                	mv	s2,a2
  100178:	c225                	beqz	a2,1001d8 <print_matrix_half+0x6a>
  10017a:	ce4e                	sw	s3,28(sp)
  10017c:	cc52                	sw	s4,24(sp)
  10017e:	ca56                	sw	s5,20(sp)
  100180:	c85a                	sw	s6,16(sp)
  100182:	c65e                	sw	s7,12(sp)
  100184:	d422                	sw	s0,40(sp)
  100186:	d226                	sw	s1,36(sp)
  100188:	8b2e                	mv	s6,a1
  10018a:	8baa                	mv	s7,a0
  10018c:	4a81                	li	s5,0
  10018e:	4a01                	li	s4,0
  100190:	fff60993          	add	s3,a2,-1
  100194:	001a9493          	sll	s1,s5,0x1
  100198:	94de                	add	s1,s1,s7
  10019a:	4401                	li	s0,0
  10019c:	a029                	j	1001a6 <print_matrix_half+0x38>
  10019e:	0405                	add	s0,s0,1
  1001a0:	0489                	add	s1,s1,2
  1001a2:	03240063          	beq	s0,s2,1001c2 <print_matrix_half+0x54>
  1001a6:	0004d503          	lhu	a0,0(s1)
  1001aa:	2ced                	jal	1004a4 <puthalf>
  1001ac:	02000513          	li	a0,32
  1001b0:	2249                	jal	100332 <putchar>
  1001b2:	ff3416e3          	bne	s0,s3,10019e <print_matrix_half+0x30>
  1001b6:	4529                	li	a0,10
  1001b8:	0405                	add	s0,s0,1
  1001ba:	2aa5                	jal	100332 <putchar>
  1001bc:	0489                	add	s1,s1,2
  1001be:	ff2414e3          	bne	s0,s2,1001a6 <print_matrix_half+0x38>
  1001c2:	0a05                	add	s4,s4,1
  1001c4:	9aca                	add	s5,s5,s2
  1001c6:	fd4b17e3          	bne	s6,s4,100194 <print_matrix_half+0x26>
  1001ca:	5422                	lw	s0,40(sp)
  1001cc:	5492                	lw	s1,36(sp)
  1001ce:	49f2                	lw	s3,28(sp)
  1001d0:	4a62                	lw	s4,24(sp)
  1001d2:	4ad2                	lw	s5,20(sp)
  1001d4:	4b42                	lw	s6,16(sp)
  1001d6:	4bb2                	lw	s7,12(sp)
  1001d8:	50b2                	lw	ra,44(sp)
  1001da:	5902                	lw	s2,32(sp)
  1001dc:	6145                	add	sp,sp,48
  1001de:	8082                	ret
  1001e0:	8082                	ret

001001e2 <print_matrix_word>:
  1001e2:	c9a5                	beqz	a1,100252 <print_matrix_word+0x70>
  1001e4:	7179                	add	sp,sp,-48
  1001e6:	d04a                	sw	s2,32(sp)
  1001e8:	d606                	sw	ra,44(sp)
  1001ea:	8932                	mv	s2,a2
  1001ec:	ce39                	beqz	a2,10024a <print_matrix_word+0x68>
  1001ee:	ce4e                	sw	s3,28(sp)
  1001f0:	cc52                	sw	s4,24(sp)
  1001f2:	ca56                	sw	s5,20(sp)
  1001f4:	c85a                	sw	s6,16(sp)
  1001f6:	c65e                	sw	s7,12(sp)
  1001f8:	d422                	sw	s0,40(sp)
  1001fa:	d226                	sw	s1,36(sp)
  1001fc:	8b2e                	mv	s6,a1
  1001fe:	8baa                	mv	s7,a0
  100200:	4a81                	li	s5,0
  100202:	4a01                	li	s4,0
  100204:	fff60993          	add	s3,a2,-1
  100208:	002a9493          	sll	s1,s5,0x2
  10020c:	94de                	add	s1,s1,s7
  10020e:	4401                	li	s0,0
  100210:	a029                	j	10021a <print_matrix_word+0x38>
  100212:	0405                	add	s0,s0,1
  100214:	0491                	add	s1,s1,4
  100216:	01240f63          	beq	s0,s2,100234 <print_matrix_word+0x52>
  10021a:	4088                	lw	a0,0(s1)
  10021c:	2a2d                	jal	100356 <puthex>
  10021e:	02000513          	li	a0,32
  100222:	2a01                	jal	100332 <putchar>
  100224:	ff3417e3          	bne	s0,s3,100212 <print_matrix_word+0x30>
  100228:	4529                	li	a0,10
  10022a:	0405                	add	s0,s0,1
  10022c:	2219                	jal	100332 <putchar>
  10022e:	0491                	add	s1,s1,4
  100230:	ff2415e3          	bne	s0,s2,10021a <print_matrix_word+0x38>
  100234:	0a05                	add	s4,s4,1
  100236:	9aca                	add	s5,s5,s2
  100238:	fd4b18e3          	bne	s6,s4,100208 <print_matrix_word+0x26>
  10023c:	5422                	lw	s0,40(sp)
  10023e:	5492                	lw	s1,36(sp)
  100240:	49f2                	lw	s3,28(sp)
  100242:	4a62                	lw	s4,24(sp)
  100244:	4ad2                	lw	s5,20(sp)
  100246:	4b42                	lw	s6,16(sp)
  100248:	4bb2                	lw	s7,12(sp)
  10024a:	50b2                	lw	ra,44(sp)
  10024c:	5902                	lw	s2,32(sp)
  10024e:	6145                	add	sp,sp,48
  100250:	8082                	ret
  100252:	8082                	ret

00100254 <matmul_int8_ref>:
  100254:	c2a5                	beqz	a3,1002b4 <matmul_int8_ref+0x60>
  100256:	8ebe                	mv	t4,a5
  100258:	cfb1                	beqz	a5,1002b4 <matmul_int8_ref+0x60>
  10025a:	1141                	add	sp,sp,-16
  10025c:	c622                	sw	s0,12(sp)
  10025e:	8faa                	mv	t6,a0
  100260:	83b6                	mv	t2,a3
  100262:	8f32                	mv	t5,a2
  100264:	853a                	mv	a0,a4
  100266:	8e2e                	mv	t3,a1
  100268:	00279413          	sll	s0,a5,0x2
  10026c:	00e58833          	add	a6,a1,a4
  100270:	4281                	li	t0,0
  100272:	837e                	mv	t1,t6
  100274:	4881                	li	a7,0
  100276:	011f06b3          	add	a3,t5,a7
  10027a:	87f2                	mv	a5,t3
  10027c:	4601                	li	a2,0
  10027e:	cd01                	beqz	a0,100296 <matmul_int8_ref+0x42>
  100280:	00078703          	lb	a4,0(a5)
  100284:	00068583          	lb	a1,0(a3)
  100288:	0785                	add	a5,a5,1
  10028a:	96aa                	add	a3,a3,a0
  10028c:	02b70733          	mul	a4,a4,a1
  100290:	963a                	add	a2,a2,a4
  100292:	fef817e3          	bne	a6,a5,100280 <matmul_int8_ref+0x2c>
  100296:	00c32023          	sw	a2,0(t1)
  10029a:	0885                	add	a7,a7,1
  10029c:	0311                	add	t1,t1,4
  10029e:	fdd89ce3          	bne	a7,t4,100276 <matmul_int8_ref+0x22>
  1002a2:	0285                	add	t0,t0,1
  1002a4:	9fa2                	add	t6,t6,s0
  1002a6:	9e76                	add	t3,t3,t4
  1002a8:	9876                	add	a6,a6,t4
  1002aa:	fc5394e3          	bne	t2,t0,100272 <matmul_int8_ref+0x1e>
  1002ae:	4432                	lw	s0,12(sp)
  1002b0:	0141                	add	sp,sp,16
  1002b2:	8082                	ret
  1002b4:	8082                	ret

001002b6 <matmul_int16_ref>:
  1002b6:	cead                	beqz	a3,100330 <matmul_int16_ref+0x7a>
  1002b8:	8f3e                	mv	t5,a5
  1002ba:	cbbd                	beqz	a5,100330 <matmul_int16_ref+0x7a>
  1002bc:	1141                	add	sp,sp,-16
  1002be:	00171813          	sll	a6,a4,0x1
  1002c2:	c622                	sw	s0,12(sp)
  1002c4:	c426                	sw	s1,8(sp)
  1002c6:	c24a                	sw	s2,4(sp)
  1002c8:	c04e                	sw	s3,0(sp)
  1002ca:	892a                	mv	s2,a0
  1002cc:	84b6                	mv	s1,a3
  1002ce:	89b2                	mv	s3,a2
  1002d0:	8fba                	mv	t6,a4
  1002d2:	8eae                	mv	t4,a1
  1002d4:	00179413          	sll	s0,a5,0x1
  1002d8:	01058533          	add	a0,a1,a6
  1002dc:	4381                	li	t2,0
  1002de:	4281                	li	t0,0
  1002e0:	00239893          	sll	a7,t2,0x2
  1002e4:	98ca                	add	a7,a7,s2
  1002e6:	8e4e                	mv	t3,s3
  1002e8:	4301                	li	t1,0
  1002ea:	86f2                	mv	a3,t3
  1002ec:	87f6                	mv	a5,t4
  1002ee:	4601                	li	a2,0
  1002f0:	000f8d63          	beqz	t6,10030a <matmul_int16_ref+0x54>
  1002f4:	00079703          	lh	a4,0(a5)
  1002f8:	00069583          	lh	a1,0(a3)
  1002fc:	0789                	add	a5,a5,2
  1002fe:	96c2                	add	a3,a3,a6
  100300:	02b70733          	mul	a4,a4,a1
  100304:	963a                	add	a2,a2,a4
  100306:	fef517e3          	bne	a0,a5,1002f4 <matmul_int16_ref+0x3e>
  10030a:	00c8a023          	sw	a2,0(a7)
  10030e:	0305                	add	t1,t1,1
  100310:	0891                	add	a7,a7,4
  100312:	0e09                	add	t3,t3,2
  100314:	fde31be3          	bne	t1,t5,1002ea <matmul_int16_ref+0x34>
  100318:	0285                	add	t0,t0,1
  10031a:	93fa                	add	t2,t2,t5
  10031c:	9ea2                	add	t4,t4,s0
  10031e:	9522                	add	a0,a0,s0
  100320:	fc5490e3          	bne	s1,t0,1002e0 <matmul_int16_ref+0x2a>
  100324:	4432                	lw	s0,12(sp)
  100326:	44a2                	lw	s1,8(sp)
  100328:	4912                	lw	s2,4(sp)
  10032a:	4982                	lw	s3,0(sp)
  10032c:	0141                	add	sp,sp,16
  10032e:	8082                	ret
  100330:	8082                	ret

00100332 <putchar>:
  100332:	0ff57793          	zext.b	a5,a0
  100336:	00020737          	lui	a4,0x20
  10033a:	c31c                	sw	a5,0(a4)
  10033c:	8082                	ret

0010033e <puts>:
  10033e:	00054783          	lbu	a5,0(a0)
  100342:	cb81                	beqz	a5,100352 <puts+0x14>
  100344:	00020737          	lui	a4,0x20
  100348:	0505                	add	a0,a0,1
  10034a:	c31c                	sw	a5,0(a4)
  10034c:	00054783          	lbu	a5,0(a0)
  100350:	ffe5                	bnez	a5,100348 <puts+0xa>
  100352:	4501                	li	a0,0
  100354:	8082                	ret

00100356 <puthex>:
  100356:	01c55793          	srl	a5,a0,0x1c
  10035a:	4725                	li	a4,9
  10035c:	0af77363          	bgeu	a4,a5,100402 <puthex+0xac>
  100360:	03778793          	add	a5,a5,55
  100364:	00020737          	lui	a4,0x20
  100368:	c31c                	sw	a5,0(a4)
  10036a:	00451793          	sll	a5,a0,0x4
  10036e:	83f1                	srl	a5,a5,0x1c
  100370:	4725                	li	a4,9
  100372:	0af77363          	bgeu	a4,a5,100418 <puthex+0xc2>
  100376:	03778793          	add	a5,a5,55
  10037a:	00020737          	lui	a4,0x20
  10037e:	c31c                	sw	a5,0(a4)
  100380:	00851793          	sll	a5,a0,0x8
  100384:	83f1                	srl	a5,a5,0x1c
  100386:	4725                	li	a4,9
  100388:	0af77363          	bgeu	a4,a5,10042e <puthex+0xd8>
  10038c:	03778793          	add	a5,a5,55
  100390:	00020737          	lui	a4,0x20
  100394:	c31c                	sw	a5,0(a4)
  100396:	00c51793          	sll	a5,a0,0xc
  10039a:	83f1                	srl	a5,a5,0x1c
  10039c:	4725                	li	a4,9
  10039e:	0af77363          	bgeu	a4,a5,100444 <puthex+0xee>
  1003a2:	03778793          	add	a5,a5,55
  1003a6:	00020737          	lui	a4,0x20
  1003aa:	c31c                	sw	a5,0(a4)
  1003ac:	01051793          	sll	a5,a0,0x10
  1003b0:	83f1                	srl	a5,a5,0x1c
  1003b2:	4725                	li	a4,9
  1003b4:	0af77363          	bgeu	a4,a5,10045a <puthex+0x104>
  1003b8:	03778793          	add	a5,a5,55
  1003bc:	00020737          	lui	a4,0x20
  1003c0:	c31c                	sw	a5,0(a4)
  1003c2:	01451793          	sll	a5,a0,0x14
  1003c6:	83f1                	srl	a5,a5,0x1c
  1003c8:	4725                	li	a4,9
  1003ca:	0af77363          	bgeu	a4,a5,100470 <puthex+0x11a>
  1003ce:	03778793          	add	a5,a5,55
  1003d2:	00020737          	lui	a4,0x20
  1003d6:	c31c                	sw	a5,0(a4)
  1003d8:	01851793          	sll	a5,a0,0x18
  1003dc:	83f1                	srl	a5,a5,0x1c
  1003de:	4725                	li	a4,9
  1003e0:	0af77363          	bgeu	a4,a5,100486 <puthex+0x130>
  1003e4:	03778793          	add	a5,a5,55
  1003e8:	00020737          	lui	a4,0x20
  1003ec:	c31c                	sw	a5,0(a4)
  1003ee:	893d                	and	a0,a0,15
  1003f0:	47a5                	li	a5,9
  1003f2:	0aa7e363          	bltu	a5,a0,100498 <puthex+0x142>
  1003f6:	03050513          	add	a0,a0,48
  1003fa:	000207b7          	lui	a5,0x20
  1003fe:	c388                	sw	a0,0(a5)
  100400:	8082                	ret
  100402:	03078793          	add	a5,a5,48 # 20030 <tohost+0x28>
  100406:	00020737          	lui	a4,0x20
  10040a:	c31c                	sw	a5,0(a4)
  10040c:	00451793          	sll	a5,a0,0x4
  100410:	83f1                	srl	a5,a5,0x1c
  100412:	4725                	li	a4,9
  100414:	f6f761e3          	bltu	a4,a5,100376 <puthex+0x20>
  100418:	03078793          	add	a5,a5,48
  10041c:	00020737          	lui	a4,0x20
  100420:	c31c                	sw	a5,0(a4)
  100422:	00851793          	sll	a5,a0,0x8
  100426:	83f1                	srl	a5,a5,0x1c
  100428:	4725                	li	a4,9
  10042a:	f6f761e3          	bltu	a4,a5,10038c <puthex+0x36>
  10042e:	03078793          	add	a5,a5,48
  100432:	00020737          	lui	a4,0x20
  100436:	c31c                	sw	a5,0(a4)
  100438:	00c51793          	sll	a5,a0,0xc
  10043c:	83f1                	srl	a5,a5,0x1c
  10043e:	4725                	li	a4,9
  100440:	f6f761e3          	bltu	a4,a5,1003a2 <puthex+0x4c>
  100444:	03078793          	add	a5,a5,48
  100448:	00020737          	lui	a4,0x20
  10044c:	c31c                	sw	a5,0(a4)
  10044e:	01051793          	sll	a5,a0,0x10
  100452:	83f1                	srl	a5,a5,0x1c
  100454:	4725                	li	a4,9
  100456:	f6f761e3          	bltu	a4,a5,1003b8 <puthex+0x62>
  10045a:	03078793          	add	a5,a5,48
  10045e:	00020737          	lui	a4,0x20
  100462:	c31c                	sw	a5,0(a4)
  100464:	01451793          	sll	a5,a0,0x14
  100468:	83f1                	srl	a5,a5,0x1c
  10046a:	4725                	li	a4,9
  10046c:	f6f761e3          	bltu	a4,a5,1003ce <puthex+0x78>
  100470:	03078793          	add	a5,a5,48
  100474:	00020737          	lui	a4,0x20
  100478:	c31c                	sw	a5,0(a4)
  10047a:	01851793          	sll	a5,a0,0x18
  10047e:	83f1                	srl	a5,a5,0x1c
  100480:	4725                	li	a4,9
  100482:	f6f761e3          	bltu	a4,a5,1003e4 <puthex+0x8e>
  100486:	03078793          	add	a5,a5,48
  10048a:	00020737          	lui	a4,0x20
  10048e:	c31c                	sw	a5,0(a4)
  100490:	893d                	and	a0,a0,15
  100492:	47a5                	li	a5,9
  100494:	f6a7f1e3          	bgeu	a5,a0,1003f6 <puthex+0xa0>
  100498:	03750513          	add	a0,a0,55
  10049c:	000207b7          	lui	a5,0x20
  1004a0:	c388                	sw	a0,0(a5)
  1004a2:	8082                	ret

001004a4 <puthalf>:
  1004a4:	00c55793          	srl	a5,a0,0xc
  1004a8:	4725                	li	a4,9
  1004aa:	04f77763          	bgeu	a4,a5,1004f8 <puthalf+0x54>
  1004ae:	03778793          	add	a5,a5,55 # 20037 <tohost+0x2f>
  1004b2:	00020737          	lui	a4,0x20
  1004b6:	c31c                	sw	a5,0(a4)
  1004b8:	00855793          	srl	a5,a0,0x8
  1004bc:	8bbd                	and	a5,a5,15
  1004be:	4725                	li	a4,9
  1004c0:	04f77763          	bgeu	a4,a5,10050e <puthalf+0x6a>
  1004c4:	03778793          	add	a5,a5,55
  1004c8:	00020737          	lui	a4,0x20
  1004cc:	c31c                	sw	a5,0(a4)
  1004ce:	00455793          	srl	a5,a0,0x4
  1004d2:	8bbd                	and	a5,a5,15
  1004d4:	4725                	li	a4,9
  1004d6:	04f77763          	bgeu	a4,a5,100524 <puthalf+0x80>
  1004da:	03778793          	add	a5,a5,55
  1004de:	00020737          	lui	a4,0x20
  1004e2:	c31c                	sw	a5,0(a4)
  1004e4:	893d                	and	a0,a0,15
  1004e6:	47a5                	li	a5,9
  1004e8:	04a7e763          	bltu	a5,a0,100536 <puthalf+0x92>
  1004ec:	03050513          	add	a0,a0,48
  1004f0:	000207b7          	lui	a5,0x20
  1004f4:	c388                	sw	a0,0(a5)
  1004f6:	8082                	ret
  1004f8:	03078793          	add	a5,a5,48 # 20030 <tohost+0x28>
  1004fc:	00020737          	lui	a4,0x20
  100500:	c31c                	sw	a5,0(a4)
  100502:	00855793          	srl	a5,a0,0x8
  100506:	8bbd                	and	a5,a5,15
  100508:	4725                	li	a4,9
  10050a:	faf76de3          	bltu	a4,a5,1004c4 <puthalf+0x20>
  10050e:	03078793          	add	a5,a5,48
  100512:	00020737          	lui	a4,0x20
  100516:	c31c                	sw	a5,0(a4)
  100518:	00455793          	srl	a5,a0,0x4
  10051c:	8bbd                	and	a5,a5,15
  10051e:	4725                	li	a4,9
  100520:	faf76de3          	bltu	a4,a5,1004da <puthalf+0x36>
  100524:	03078793          	add	a5,a5,48
  100528:	00020737          	lui	a4,0x20
  10052c:	c31c                	sw	a5,0(a4)
  10052e:	893d                	and	a0,a0,15
  100530:	47a5                	li	a5,9
  100532:	faa7fde3          	bgeu	a5,a0,1004ec <puthalf+0x48>
  100536:	03750513          	add	a0,a0,55
  10053a:	000207b7          	lui	a5,0x20
  10053e:	c388                	sw	a0,0(a5)
  100540:	8082                	ret

00100542 <putbyte>:
  100542:	00455793          	srl	a5,a0,0x4
  100546:	4725                	li	a4,9
  100548:	02f77163          	bgeu	a4,a5,10056a <putbyte+0x28>
  10054c:	03778793          	add	a5,a5,55 # 20037 <tohost+0x2f>
  100550:	00020737          	lui	a4,0x20
  100554:	c31c                	sw	a5,0(a4)
  100556:	893d                	and	a0,a0,15
  100558:	47a5                	li	a5,9
  10055a:	02a7f163          	bgeu	a5,a0,10057c <putbyte+0x3a>
  10055e:	03750513          	add	a0,a0,55
  100562:	000207b7          	lui	a5,0x20
  100566:	c388                	sw	a0,0(a5)
  100568:	8082                	ret
  10056a:	03078793          	add	a5,a5,48 # 20030 <tohost+0x28>
  10056e:	00020737          	lui	a4,0x20
  100572:	c31c                	sw	a5,0(a4)
  100574:	893d                	and	a0,a0,15
  100576:	47a5                	li	a5,9
  100578:	fea7e3e3          	bltu	a5,a0,10055e <putbyte+0x1c>
  10057c:	03050513          	add	a0,a0,48
  100580:	000207b7          	lui	a5,0x20
  100584:	c388                	sw	a0,0(a5)
  100586:	8082                	ret

00100588 <sim_halt>:
  100588:	000207b7          	lui	a5,0x20
  10058c:	4705                	li	a4,1
  10058e:	c798                	sw	a4,8(a5)
  100590:	8082                	ret

00100592 <pcount_reset>:
  100592:	b0201073          	csrw	minstret,zero
  100596:	b0001073          	csrw	mcycle,zero
  10059a:	b0301073          	csrw	mhpmcounter3,zero
  10059e:	b0401073          	csrw	mhpmcounter4,zero
  1005a2:	b0501073          	csrw	mhpmcounter5,zero
  1005a6:	b0601073          	csrw	mhpmcounter6,zero
  1005aa:	b0701073          	csrw	mhpmcounter7,zero
  1005ae:	b0801073          	csrw	mhpmcounter8,zero
  1005b2:	b0901073          	csrw	mhpmcounter9,zero
  1005b6:	b0a01073          	csrw	mhpmcounter10,zero
  1005ba:	b0b01073          	csrw	mhpmcounter11,zero
  1005be:	b0c01073          	csrw	mhpmcounter12,zero
  1005c2:	b0d01073          	csrw	mhpmcounter13,zero
  1005c6:	b0e01073          	csrw	mhpmcounter14,zero
  1005ca:	b0f01073          	csrw	mhpmcounter15,zero
  1005ce:	b1001073          	csrw	mhpmcounter16,zero
  1005d2:	b1101073          	csrw	mhpmcounter17,zero
  1005d6:	b1201073          	csrw	mhpmcounter18,zero
  1005da:	b1301073          	csrw	mhpmcounter19,zero
  1005de:	b1401073          	csrw	mhpmcounter20,zero
  1005e2:	b1501073          	csrw	mhpmcounter21,zero
  1005e6:	b1601073          	csrw	mhpmcounter22,zero
  1005ea:	b1701073          	csrw	mhpmcounter23,zero
  1005ee:	b1801073          	csrw	mhpmcounter24,zero
  1005f2:	b1901073          	csrw	mhpmcounter25,zero
  1005f6:	b1a01073          	csrw	mhpmcounter26,zero
  1005fa:	b1b01073          	csrw	mhpmcounter27,zero
  1005fe:	b1c01073          	csrw	mhpmcounter28,zero
  100602:	b1d01073          	csrw	mhpmcounter29,zero
  100606:	b1e01073          	csrw	mhpmcounter30,zero
  10060a:	b1f01073          	csrw	mhpmcounter31,zero
  10060e:	b8201073          	csrw	minstreth,zero
  100612:	b8001073          	csrw	mcycleh,zero
  100616:	b8301073          	csrw	mhpmcounter3h,zero
  10061a:	b8401073          	csrw	mhpmcounter4h,zero
  10061e:	b8501073          	csrw	mhpmcounter5h,zero
  100622:	b8601073          	csrw	mhpmcounter6h,zero
  100626:	b8701073          	csrw	mhpmcounter7h,zero
  10062a:	b8801073          	csrw	mhpmcounter8h,zero
  10062e:	b8901073          	csrw	mhpmcounter9h,zero
  100632:	b8a01073          	csrw	mhpmcounter10h,zero
  100636:	b8b01073          	csrw	mhpmcounter11h,zero
  10063a:	b8c01073          	csrw	mhpmcounter12h,zero
  10063e:	b8d01073          	csrw	mhpmcounter13h,zero
  100642:	b8e01073          	csrw	mhpmcounter14h,zero
  100646:	b8f01073          	csrw	mhpmcounter15h,zero
  10064a:	b9001073          	csrw	mhpmcounter16h,zero
  10064e:	b9101073          	csrw	mhpmcounter17h,zero
  100652:	b9201073          	csrw	mhpmcounter18h,zero
  100656:	b9301073          	csrw	mhpmcounter19h,zero
  10065a:	b9401073          	csrw	mhpmcounter20h,zero
  10065e:	b9501073          	csrw	mhpmcounter21h,zero
  100662:	b9601073          	csrw	mhpmcounter22h,zero
  100666:	b9701073          	csrw	mhpmcounter23h,zero
  10066a:	b9801073          	csrw	mhpmcounter24h,zero
  10066e:	b9901073          	csrw	mhpmcounter25h,zero
  100672:	b9a01073          	csrw	mhpmcounter26h,zero
  100676:	b9b01073          	csrw	mhpmcounter27h,zero
  10067a:	b9c01073          	csrw	mhpmcounter28h,zero
  10067e:	b9d01073          	csrw	mhpmcounter29h,zero
  100682:	b9e01073          	csrw	mhpmcounter30h,zero
  100686:	b9f01073          	csrw	mhpmcounter31h,zero
  10068a:	8082                	ret

0010068c <pcount_enable>:
  10068c:	00153513          	seqz	a0,a0
  100690:	40a00533          	neg	a0,a0
  100694:	32051073          	csrw	mcountinhibit,a0
  100698:	8082                	ret

0010069a <get_mepc>:
  10069a:	34102573          	csrr	a0,mepc
  10069e:	8082                	ret

001006a0 <get_mcause>:
  1006a0:	34202573          	csrr	a0,mcause
  1006a4:	8082                	ret

001006a6 <get_mtval>:
  1006a6:	34302573          	csrr	a0,mtval
  1006aa:	8082                	ret

001006ac <simple_exc_handler>:
  1006ac:	04500713          	li	a4,69
  1006b0:	00000797          	auipc	a5,0x0
  1006b4:	6f878793          	add	a5,a5,1784 # 100da8 <main+0xea>
  1006b8:	000206b7          	lui	a3,0x20
  1006bc:	0785                	add	a5,a5,1
  1006be:	c298                	sw	a4,0(a3)
  1006c0:	0007c703          	lbu	a4,0(a5)
  1006c4:	ff65                	bnez	a4,1006bc <simple_exc_handler+0x10>
  1006c6:	03d00713          	li	a4,61
  1006ca:	00000797          	auipc	a5,0x0
  1006ce:	6ee78793          	add	a5,a5,1774 # 100db8 <main+0xfa>
  1006d2:	000206b7          	lui	a3,0x20
  1006d6:	0785                	add	a5,a5,1
  1006d8:	c298                	sw	a4,0(a3)
  1006da:	0007c703          	lbu	a4,0(a5)
  1006de:	ff65                	bnez	a4,1006d6 <simple_exc_handler+0x2a>
  1006e0:	04d00713          	li	a4,77
  1006e4:	00000797          	auipc	a5,0x0
  1006e8:	6e478793          	add	a5,a5,1764 # 100dc8 <main+0x10a>
  1006ec:	000206b7          	lui	a3,0x20
  1006f0:	0785                	add	a5,a5,1
  1006f2:	c298                	sw	a4,0(a3)
  1006f4:	0007c703          	lbu	a4,0(a5)
  1006f8:	ff65                	bnez	a4,1006f0 <simple_exc_handler+0x44>
  1006fa:	341027f3          	csrr	a5,mepc
  1006fe:	4625                	li	a2,9
  100700:	01c7d713          	srl	a4,a5,0x1c
  100704:	34e67163          	bgeu	a2,a4,100a46 <simple_exc_handler+0x39a>
  100708:	03770713          	add	a4,a4,55 # 20037 <tohost+0x2f>
  10070c:	c298                	sw	a4,0(a3)
  10070e:	00479713          	sll	a4,a5,0x4
  100712:	8371                	srl	a4,a4,0x1c
  100714:	46a5                	li	a3,9
  100716:	32e6f263          	bgeu	a3,a4,100a3a <simple_exc_handler+0x38e>
  10071a:	03770713          	add	a4,a4,55
  10071e:	000206b7          	lui	a3,0x20
  100722:	c298                	sw	a4,0(a3)
  100724:	00879713          	sll	a4,a5,0x8
  100728:	8371                	srl	a4,a4,0x1c
  10072a:	46a5                	li	a3,9
  10072c:	30e6f163          	bgeu	a3,a4,100a2e <simple_exc_handler+0x382>
  100730:	03770713          	add	a4,a4,55
  100734:	000206b7          	lui	a3,0x20
  100738:	c298                	sw	a4,0(a3)
  10073a:	00c79713          	sll	a4,a5,0xc
  10073e:	8371                	srl	a4,a4,0x1c
  100740:	46a5                	li	a3,9
  100742:	2ee6f063          	bgeu	a3,a4,100a22 <simple_exc_handler+0x376>
  100746:	03770713          	add	a4,a4,55
  10074a:	000206b7          	lui	a3,0x20
  10074e:	c298                	sw	a4,0(a3)
  100750:	01079713          	sll	a4,a5,0x10
  100754:	8371                	srl	a4,a4,0x1c
  100756:	46a5                	li	a3,9
  100758:	2ae6ff63          	bgeu	a3,a4,100a16 <simple_exc_handler+0x36a>
  10075c:	03770713          	add	a4,a4,55
  100760:	000206b7          	lui	a3,0x20
  100764:	c298                	sw	a4,0(a3)
  100766:	01479713          	sll	a4,a5,0x14
  10076a:	8371                	srl	a4,a4,0x1c
  10076c:	46a5                	li	a3,9
  10076e:	28e6fe63          	bgeu	a3,a4,100a0a <simple_exc_handler+0x35e>
  100772:	03770713          	add	a4,a4,55
  100776:	000206b7          	lui	a3,0x20
  10077a:	c298                	sw	a4,0(a3)
  10077c:	01879713          	sll	a4,a5,0x18
  100780:	8371                	srl	a4,a4,0x1c
  100782:	46a5                	li	a3,9
  100784:	26e6fd63          	bgeu	a3,a4,1009fe <simple_exc_handler+0x352>
  100788:	03770713          	add	a4,a4,55
  10078c:	000206b7          	lui	a3,0x20
  100790:	c298                	sw	a4,0(a3)
  100792:	8bbd                	and	a5,a5,15
  100794:	4725                	li	a4,9
  100796:	24f76e63          	bltu	a4,a5,1009f2 <simple_exc_handler+0x346>
  10079a:	03078793          	add	a5,a5,48
  10079e:	00020737          	lui	a4,0x20
  1007a2:	c31c                	sw	a5,0(a4)
  1007a4:	4729                	li	a4,10
  1007a6:	00000797          	auipc	a5,0x0
  1007aa:	62e78793          	add	a5,a5,1582 # 100dd4 <main+0x116>
  1007ae:	000206b7          	lui	a3,0x20
  1007b2:	0785                	add	a5,a5,1
  1007b4:	c298                	sw	a4,0(a3)
  1007b6:	0007c703          	lbu	a4,0(a5)
  1007ba:	ff65                	bnez	a4,1007b2 <simple_exc_handler+0x106>
  1007bc:	342027f3          	csrr	a5,mcause
  1007c0:	4625                	li	a2,9
  1007c2:	01c7d713          	srl	a4,a5,0x1c
  1007c6:	22e67263          	bgeu	a2,a4,1009ea <simple_exc_handler+0x33e>
  1007ca:	03770713          	add	a4,a4,55 # 20037 <tohost+0x2f>
  1007ce:	c298                	sw	a4,0(a3)
  1007d0:	00479713          	sll	a4,a5,0x4
  1007d4:	8371                	srl	a4,a4,0x1c
  1007d6:	46a5                	li	a3,9
  1007d8:	20e6f363          	bgeu	a3,a4,1009de <simple_exc_handler+0x332>
  1007dc:	03770713          	add	a4,a4,55
  1007e0:	000206b7          	lui	a3,0x20
  1007e4:	c298                	sw	a4,0(a3)
  1007e6:	00879713          	sll	a4,a5,0x8
  1007ea:	8371                	srl	a4,a4,0x1c
  1007ec:	46a5                	li	a3,9
  1007ee:	1ee6f263          	bgeu	a3,a4,1009d2 <simple_exc_handler+0x326>
  1007f2:	03770713          	add	a4,a4,55
  1007f6:	000206b7          	lui	a3,0x20
  1007fa:	c298                	sw	a4,0(a3)
  1007fc:	00c79713          	sll	a4,a5,0xc
  100800:	8371                	srl	a4,a4,0x1c
  100802:	46a5                	li	a3,9
  100804:	1ce6f163          	bgeu	a3,a4,1009c6 <simple_exc_handler+0x31a>
  100808:	03770713          	add	a4,a4,55
  10080c:	000206b7          	lui	a3,0x20
  100810:	c298                	sw	a4,0(a3)
  100812:	01079713          	sll	a4,a5,0x10
  100816:	8371                	srl	a4,a4,0x1c
  100818:	46a5                	li	a3,9
  10081a:	1ae6f063          	bgeu	a3,a4,1009ba <simple_exc_handler+0x30e>
  10081e:	03770713          	add	a4,a4,55
  100822:	000206b7          	lui	a3,0x20
  100826:	c298                	sw	a4,0(a3)
  100828:	01479713          	sll	a4,a5,0x14
  10082c:	8371                	srl	a4,a4,0x1c
  10082e:	46a5                	li	a3,9
  100830:	16e6ff63          	bgeu	a3,a4,1009ae <simple_exc_handler+0x302>
  100834:	03770713          	add	a4,a4,55
  100838:	000206b7          	lui	a3,0x20
  10083c:	c298                	sw	a4,0(a3)
  10083e:	01879713          	sll	a4,a5,0x18
  100842:	8371                	srl	a4,a4,0x1c
  100844:	46a5                	li	a3,9
  100846:	14e6fe63          	bgeu	a3,a4,1009a2 <simple_exc_handler+0x2f6>
  10084a:	03770713          	add	a4,a4,55
  10084e:	000206b7          	lui	a3,0x20
  100852:	c298                	sw	a4,0(a3)
  100854:	8bbd                	and	a5,a5,15
  100856:	4725                	li	a4,9
  100858:	12f76f63          	bltu	a4,a5,100996 <simple_exc_handler+0x2ea>
  10085c:	03078793          	add	a5,a5,48
  100860:	00020737          	lui	a4,0x20
  100864:	c31c                	sw	a5,0(a4)
  100866:	4729                	li	a4,10
  100868:	00000797          	auipc	a5,0x0
  10086c:	57878793          	add	a5,a5,1400 # 100de0 <main+0x122>
  100870:	000206b7          	lui	a3,0x20
  100874:	0785                	add	a5,a5,1
  100876:	c298                	sw	a4,0(a3)
  100878:	0007c703          	lbu	a4,0(a5)
  10087c:	ff65                	bnez	a4,100874 <simple_exc_handler+0x1c8>
  10087e:	343027f3          	csrr	a5,mtval
  100882:	4625                	li	a2,9
  100884:	01c7d713          	srl	a4,a5,0x1c
  100888:	10e67363          	bgeu	a2,a4,10098e <simple_exc_handler+0x2e2>
  10088c:	03770713          	add	a4,a4,55 # 20037 <tohost+0x2f>
  100890:	c298                	sw	a4,0(a3)
  100892:	00479713          	sll	a4,a5,0x4
  100896:	8371                	srl	a4,a4,0x1c
  100898:	46a5                	li	a3,9
  10089a:	0ee6f463          	bgeu	a3,a4,100982 <simple_exc_handler+0x2d6>
  10089e:	03770713          	add	a4,a4,55
  1008a2:	000206b7          	lui	a3,0x20
  1008a6:	c298                	sw	a4,0(a3)
  1008a8:	00879713          	sll	a4,a5,0x8
  1008ac:	8371                	srl	a4,a4,0x1c
  1008ae:	46a5                	li	a3,9
  1008b0:	0ce6f363          	bgeu	a3,a4,100976 <simple_exc_handler+0x2ca>
  1008b4:	03770713          	add	a4,a4,55
  1008b8:	000206b7          	lui	a3,0x20
  1008bc:	c298                	sw	a4,0(a3)
  1008be:	00c79713          	sll	a4,a5,0xc
  1008c2:	8371                	srl	a4,a4,0x1c
  1008c4:	46a5                	li	a3,9
  1008c6:	0ae6f263          	bgeu	a3,a4,10096a <simple_exc_handler+0x2be>
  1008ca:	03770713          	add	a4,a4,55
  1008ce:	000206b7          	lui	a3,0x20
  1008d2:	c298                	sw	a4,0(a3)
  1008d4:	01079713          	sll	a4,a5,0x10
  1008d8:	8371                	srl	a4,a4,0x1c
  1008da:	46a5                	li	a3,9
  1008dc:	08e6f163          	bgeu	a3,a4,10095e <simple_exc_handler+0x2b2>
  1008e0:	03770713          	add	a4,a4,55
  1008e4:	000206b7          	lui	a3,0x20
  1008e8:	c298                	sw	a4,0(a3)
  1008ea:	01479713          	sll	a4,a5,0x14
  1008ee:	8371                	srl	a4,a4,0x1c
  1008f0:	46a5                	li	a3,9
  1008f2:	06e6f063          	bgeu	a3,a4,100952 <simple_exc_handler+0x2a6>
  1008f6:	03770713          	add	a4,a4,55
  1008fa:	000206b7          	lui	a3,0x20
  1008fe:	c298                	sw	a4,0(a3)
  100900:	01879713          	sll	a4,a5,0x18
  100904:	8371                	srl	a4,a4,0x1c
  100906:	46a5                	li	a3,9
  100908:	02e6ff63          	bgeu	a3,a4,100946 <simple_exc_handler+0x29a>
  10090c:	03770713          	add	a4,a4,55
  100910:	000206b7          	lui	a3,0x20
  100914:	c298                	sw	a4,0(a3)
  100916:	8bbd                	and	a5,a5,15
  100918:	4725                	li	a4,9
  10091a:	02f76063          	bltu	a4,a5,10093a <simple_exc_handler+0x28e>
  10091e:	03078793          	add	a5,a5,48
  100922:	00020737          	lui	a4,0x20
  100926:	c31c                	sw	a5,0(a4)
  100928:	00020737          	lui	a4,0x20
  10092c:	46a9                	li	a3,10
  10092e:	c314                	sw	a3,0(a4)
  100930:	000207b7          	lui	a5,0x20
  100934:	4705                	li	a4,1
  100936:	c798                	sw	a4,8(a5)
  100938:	a001                	j	100938 <simple_exc_handler+0x28c>
  10093a:	03778793          	add	a5,a5,55 # 20037 <tohost+0x2f>
  10093e:	00020737          	lui	a4,0x20
  100942:	c31c                	sw	a5,0(a4)
  100944:	b7d5                	j	100928 <simple_exc_handler+0x27c>
  100946:	03070713          	add	a4,a4,48 # 20030 <tohost+0x28>
  10094a:	000206b7          	lui	a3,0x20
  10094e:	c298                	sw	a4,0(a3)
  100950:	b7d9                	j	100916 <simple_exc_handler+0x26a>
  100952:	03070713          	add	a4,a4,48
  100956:	000206b7          	lui	a3,0x20
  10095a:	c298                	sw	a4,0(a3)
  10095c:	b755                	j	100900 <simple_exc_handler+0x254>
  10095e:	03070713          	add	a4,a4,48
  100962:	000206b7          	lui	a3,0x20
  100966:	c298                	sw	a4,0(a3)
  100968:	b749                	j	1008ea <simple_exc_handler+0x23e>
  10096a:	03070713          	add	a4,a4,48
  10096e:	000206b7          	lui	a3,0x20
  100972:	c298                	sw	a4,0(a3)
  100974:	b785                	j	1008d4 <simple_exc_handler+0x228>
  100976:	03070713          	add	a4,a4,48
  10097a:	000206b7          	lui	a3,0x20
  10097e:	c298                	sw	a4,0(a3)
  100980:	bf3d                	j	1008be <simple_exc_handler+0x212>
  100982:	03070713          	add	a4,a4,48
  100986:	000206b7          	lui	a3,0x20
  10098a:	c298                	sw	a4,0(a3)
  10098c:	bf31                	j	1008a8 <simple_exc_handler+0x1fc>
  10098e:	03070713          	add	a4,a4,48
  100992:	c298                	sw	a4,0(a3)
  100994:	bdfd                	j	100892 <simple_exc_handler+0x1e6>
  100996:	03778793          	add	a5,a5,55
  10099a:	00020737          	lui	a4,0x20
  10099e:	c31c                	sw	a5,0(a4)
  1009a0:	b5d9                	j	100866 <simple_exc_handler+0x1ba>
  1009a2:	03070713          	add	a4,a4,48 # 20030 <tohost+0x28>
  1009a6:	000206b7          	lui	a3,0x20
  1009aa:	c298                	sw	a4,0(a3)
  1009ac:	b565                	j	100854 <simple_exc_handler+0x1a8>
  1009ae:	03070713          	add	a4,a4,48
  1009b2:	000206b7          	lui	a3,0x20
  1009b6:	c298                	sw	a4,0(a3)
  1009b8:	b559                	j	10083e <simple_exc_handler+0x192>
  1009ba:	03070713          	add	a4,a4,48
  1009be:	000206b7          	lui	a3,0x20
  1009c2:	c298                	sw	a4,0(a3)
  1009c4:	b595                	j	100828 <simple_exc_handler+0x17c>
  1009c6:	03070713          	add	a4,a4,48
  1009ca:	000206b7          	lui	a3,0x20
  1009ce:	c298                	sw	a4,0(a3)
  1009d0:	b589                	j	100812 <simple_exc_handler+0x166>
  1009d2:	03070713          	add	a4,a4,48
  1009d6:	000206b7          	lui	a3,0x20
  1009da:	c298                	sw	a4,0(a3)
  1009dc:	b505                	j	1007fc <simple_exc_handler+0x150>
  1009de:	03070713          	add	a4,a4,48
  1009e2:	000206b7          	lui	a3,0x20
  1009e6:	c298                	sw	a4,0(a3)
  1009e8:	bbfd                	j	1007e6 <simple_exc_handler+0x13a>
  1009ea:	03070713          	add	a4,a4,48
  1009ee:	c298                	sw	a4,0(a3)
  1009f0:	b3c5                	j	1007d0 <simple_exc_handler+0x124>
  1009f2:	03778793          	add	a5,a5,55
  1009f6:	00020737          	lui	a4,0x20
  1009fa:	c31c                	sw	a5,0(a4)
  1009fc:	b365                	j	1007a4 <simple_exc_handler+0xf8>
  1009fe:	03070713          	add	a4,a4,48 # 20030 <tohost+0x28>
  100a02:	000206b7          	lui	a3,0x20
  100a06:	c298                	sw	a4,0(a3)
  100a08:	b369                	j	100792 <simple_exc_handler+0xe6>
  100a0a:	03070713          	add	a4,a4,48
  100a0e:	000206b7          	lui	a3,0x20
  100a12:	c298                	sw	a4,0(a3)
  100a14:	b3a5                	j	10077c <simple_exc_handler+0xd0>
  100a16:	03070713          	add	a4,a4,48
  100a1a:	000206b7          	lui	a3,0x20
  100a1e:	c298                	sw	a4,0(a3)
  100a20:	b399                	j	100766 <simple_exc_handler+0xba>
  100a22:	03070713          	add	a4,a4,48
  100a26:	000206b7          	lui	a3,0x20
  100a2a:	c298                	sw	a4,0(a3)
  100a2c:	b315                	j	100750 <simple_exc_handler+0xa4>
  100a2e:	03070713          	add	a4,a4,48
  100a32:	000206b7          	lui	a3,0x20
  100a36:	c298                	sw	a4,0(a3)
  100a38:	b309                	j	10073a <simple_exc_handler+0x8e>
  100a3a:	03070713          	add	a4,a4,48
  100a3e:	000206b7          	lui	a3,0x20
  100a42:	c298                	sw	a4,0(a3)
  100a44:	b1c5                	j	100724 <simple_exc_handler+0x78>
  100a46:	03070713          	add	a4,a4,48
  100a4a:	c298                	sw	a4,0(a3)
  100a4c:	b1c9                	j	10070e <simple_exc_handler+0x62>

00100a4e <timer_enable>:
  100a4e:	00000697          	auipc	a3,0x0
  100a52:	42a68693          	add	a3,a3,1066 # 100e78 <time_elapsed>
  100a56:	4801                	li	a6,0
  100a58:	00000797          	auipc	a5,0x0
  100a5c:	41878793          	add	a5,a5,1048 # 100e70 <time_increment>
  100a60:	0106a023          	sw	a6,0(a3)
  100a64:	00030737          	lui	a4,0x30
  100a68:	4881                	li	a7,0
  100a6a:	0116a223          	sw	a7,4(a3)
  100a6e:	c388                	sw	a0,0(a5)
  100a70:	c3cc                	sw	a1,4(a5)
  100a72:	00030837          	lui	a6,0x30
  100a76:	0711                	add	a4,a4,4 # 30004 <tohost+0xfffc>
  100a78:	431c                	lw	a5,0(a4)
  100a7a:	00082603          	lw	a2,0(a6) # 30000 <tohost+0xfff8>
  100a7e:	4314                	lw	a3,0(a4)
  100a80:	fed79ce3          	bne	a5,a3,100a78 <timer_enable+0x2a>
  100a84:	9532                	add	a0,a0,a2
  100a86:	00030737          	lui	a4,0x30
  100a8a:	97ae                	add	a5,a5,a1
  100a8c:	00c53633          	sltu	a2,a0,a2
  100a90:	55fd                	li	a1,-1
  100a92:	c70c                	sw	a1,8(a4)
  100a94:	963e                	add	a2,a2,a5
  100a96:	000306b7          	lui	a3,0x30
  100a9a:	c6d0                	sw	a2,12(a3)
  100a9c:	c708                	sw	a0,8(a4)
  100a9e:	08000793          	li	a5,128
  100aa2:	3047a073          	csrs	mie,a5
  100aa6:	47a1                	li	a5,8
  100aa8:	3007a073          	csrs	mstatus,a5
  100aac:	8082                	ret

00100aae <timer_disable>:
  100aae:	08000793          	li	a5,128
  100ab2:	3047b073          	csrc	mie,a5
  100ab6:	8082                	ret

00100ab8 <timer_read>:
  100ab8:	000307b7          	lui	a5,0x30
  100abc:	000306b7          	lui	a3,0x30
  100ac0:	0791                	add	a5,a5,4 # 30004 <tohost+0xfffc>
  100ac2:	4398                	lw	a4,0(a5)
  100ac4:	4288                	lw	a0,0(a3)
  100ac6:	438c                	lw	a1,0(a5)
  100ac8:	fee59de3          	bne	a1,a4,100ac2 <timer_read+0xa>
  100acc:	8082                	ret

00100ace <timecmp_update>:
  100ace:	000307b7          	lui	a5,0x30
  100ad2:	56fd                	li	a3,-1
  100ad4:	c794                	sw	a3,8(a5)
  100ad6:	00030737          	lui	a4,0x30
  100ada:	c74c                	sw	a1,12(a4)
  100adc:	c788                	sw	a0,8(a5)
  100ade:	8082                	ret

00100ae0 <get_elapsed_time>:
  100ae0:	00000797          	auipc	a5,0x0
  100ae4:	39878793          	add	a5,a5,920 # 100e78 <time_elapsed>
  100ae8:	4388                	lw	a0,0(a5)
  100aea:	43cc                	lw	a1,4(a5)
  100aec:	8082                	ret

00100aee <simple_timer_handler>:
  100aee:	1101                	add	sp,sp,-32
  100af0:	c43e                	sw	a5,8(sp)
  100af2:	00000797          	auipc	a5,0x0
  100af6:	37e78793          	add	a5,a5,894 # 100e70 <time_increment>
  100afa:	ce2a                	sw	a0,28(sp)
  100afc:	c242                	sw	a6,4(sp)
  100afe:	4388                	lw	a0,0(a5)
  100b00:	0047a803          	lw	a6,4(a5)
  100b04:	c63a                	sw	a4,12(sp)
  100b06:	00030737          	lui	a4,0x30
  100b0a:	cc2e                	sw	a1,24(sp)
  100b0c:	ca32                	sw	a2,20(sp)
  100b0e:	c836                	sw	a3,16(sp)
  100b10:	c046                	sw	a7,0(sp)
  100b12:	000305b7          	lui	a1,0x30
  100b16:	0711                	add	a4,a4,4 # 30004 <tohost+0xfffc>
  100b18:	431c                	lw	a5,0(a4)
  100b1a:	4190                	lw	a2,0(a1)
  100b1c:	4314                	lw	a3,0(a4)
  100b1e:	fed79de3          	bne	a5,a3,100b18 <simple_timer_handler+0x2a>
  100b22:	00a606b3          	add	a3,a2,a0
  100b26:	00030737          	lui	a4,0x30
  100b2a:	97c2                	add	a5,a5,a6
  100b2c:	00c6b633          	sltu	a2,a3,a2
  100b30:	557d                	li	a0,-1
  100b32:	c708                	sw	a0,8(a4)
  100b34:	963e                	add	a2,a2,a5
  100b36:	000305b7          	lui	a1,0x30
  100b3a:	c5d0                	sw	a2,12(a1)
  100b3c:	c714                	sw	a3,8(a4)
  100b3e:	00000517          	auipc	a0,0x0
  100b42:	33a50513          	add	a0,a0,826 # 100e78 <time_elapsed>
  100b46:	00052803          	lw	a6,0(a0)
  100b4a:	00452883          	lw	a7,4(a0)
  100b4e:	46c2                	lw	a3,16(sp)
  100b50:	00180593          	add	a1,a6,1
  100b54:	0105b633          	sltu	a2,a1,a6
  100b58:	011607b3          	add	a5,a2,a7
  100b5c:	c10c                	sw	a1,0(a0)
  100b5e:	c15c                	sw	a5,4(a0)
  100b60:	45e2                	lw	a1,24(sp)
  100b62:	4572                	lw	a0,28(sp)
  100b64:	4652                	lw	a2,20(sp)
  100b66:	4732                	lw	a4,12(sp)
  100b68:	47a2                	lw	a5,8(sp)
  100b6a:	4812                	lw	a6,4(sp)
  100b6c:	4882                	lw	a7,0(sp)
  100b6e:	6105                	add	sp,sp,32
  100b70:	30200073          	mret

00100b74 <matmul_int8>:
  100b74:	c2b5                	beqz	a3,100bd8 <matmul_int8+0x64>
  100b76:	1141                	add	sp,sp,-16
  100b78:	c622                	sw	s0,12(sp)
  100b7a:	842a                	mv	s0,a0
  100b7c:	853e                	mv	a0,a5
  100b7e:	cbb1                	beqz	a5,100bd2 <matmul_int8+0x5e>
  100b80:	83b6                	mv	t2,a3
  100b82:	8f32                	mv	t5,a2
  100b84:	8eba                	mv	t4,a4
  100b86:	8e2e                	mv	t3,a1
  100b88:	00e58833          	add	a6,a1,a4
  100b8c:	4281                	li	t0,0
  100b8e:	4f81                	li	t6,0
  100b90:	00229313          	sll	t1,t0,0x2
  100b94:	9322                	add	t1,t1,s0
  100b96:	4881                	li	a7,0
  100b98:	011f06b3          	add	a3,t5,a7
  100b9c:	87f2                	mv	a5,t3
  100b9e:	4601                	li	a2,0
  100ba0:	000e8d63          	beqz	t4,100bba <matmul_int8+0x46>
  100ba4:	00078703          	lb	a4,0(a5)
  100ba8:	00068583          	lb	a1,0(a3) # 30000 <tohost+0xfff8>
  100bac:	0785                	add	a5,a5,1
  100bae:	96aa                	add	a3,a3,a0
  100bb0:	02b70733          	mul	a4,a4,a1
  100bb4:	963a                	add	a2,a2,a4
  100bb6:	fef817e3          	bne	a6,a5,100ba4 <matmul_int8+0x30>
  100bba:	00c32023          	sw	a2,0(t1)
  100bbe:	0885                	add	a7,a7,1
  100bc0:	0311                	add	t1,t1,4
  100bc2:	fca89be3          	bne	a7,a0,100b98 <matmul_int8+0x24>
  100bc6:	0f85                	add	t6,t6,1
  100bc8:	92aa                	add	t0,t0,a0
  100bca:	9e76                	add	t3,t3,t4
  100bcc:	9876                	add	a6,a6,t4
  100bce:	fc7f91e3          	bne	t6,t2,100b90 <matmul_int8+0x1c>
  100bd2:	4432                	lw	s0,12(sp)
  100bd4:	0141                	add	sp,sp,16
  100bd6:	8082                	ret
  100bd8:	8082                	ret

00100bda <matmul_int16>:
  100bda:	cead                	beqz	a3,100c54 <matmul_int16+0x7a>
  100bdc:	8f3e                	mv	t5,a5
  100bde:	cbbd                	beqz	a5,100c54 <matmul_int16+0x7a>
  100be0:	1141                	add	sp,sp,-16
  100be2:	c622                	sw	s0,12(sp)
  100be4:	00171413          	sll	s0,a4,0x1
  100be8:	c426                	sw	s1,8(sp)
  100bea:	c24a                	sw	s2,4(sp)
  100bec:	c04e                	sw	s3,0(sp)
  100bee:	892a                	mv	s2,a0
  100bf0:	84b6                	mv	s1,a3
  100bf2:	89b2                	mv	s3,a2
  100bf4:	8fba                	mv	t6,a4
  100bf6:	8eae                	mv	t4,a1
  100bf8:	00858533          	add	a0,a1,s0
  100bfc:	00179813          	sll	a6,a5,0x1
  100c00:	4381                	li	t2,0
  100c02:	4281                	li	t0,0
  100c04:	00239893          	sll	a7,t2,0x2
  100c08:	98ca                	add	a7,a7,s2
  100c0a:	8e4e                	mv	t3,s3
  100c0c:	4301                	li	t1,0
  100c0e:	86f2                	mv	a3,t3
  100c10:	87f6                	mv	a5,t4
  100c12:	4601                	li	a2,0
  100c14:	000f8d63          	beqz	t6,100c2e <matmul_int16+0x54>
  100c18:	00079703          	lh	a4,0(a5)
  100c1c:	00069583          	lh	a1,0(a3)
  100c20:	0789                	add	a5,a5,2
  100c22:	96c2                	add	a3,a3,a6
  100c24:	02b70733          	mul	a4,a4,a1
  100c28:	963a                	add	a2,a2,a4
  100c2a:	fef517e3          	bne	a0,a5,100c18 <matmul_int16+0x3e>
  100c2e:	00c8a023          	sw	a2,0(a7)
  100c32:	0305                	add	t1,t1,1
  100c34:	0891                	add	a7,a7,4
  100c36:	0e09                	add	t3,t3,2
  100c38:	fde31be3          	bne	t1,t5,100c0e <matmul_int16+0x34>
  100c3c:	0285                	add	t0,t0,1
  100c3e:	93fa                	add	t2,t2,t5
  100c40:	9ea2                	add	t4,t4,s0
  100c42:	9522                	add	a0,a0,s0
  100c44:	fc9290e3          	bne	t0,s1,100c04 <matmul_int16+0x2a>
  100c48:	4432                	lw	s0,12(sp)
  100c4a:	44a2                	lw	s1,8(sp)
  100c4c:	4912                	lw	s2,4(sp)
  100c4e:	4982                	lw	s3,0(sp)
  100c50:	0141                	add	sp,sp,16
  100c52:	8082                	ret
  100c54:	8082                	ret

00100c56 <default_exc_handler>:
  100c56:	a57ff06f          	j	1006ac <simple_exc_handler>

00100c5a <timer_handler>:
  100c5a:	e95ff06f          	j	100aee <simple_timer_handler>

00100c5e <reset_handler>:
  100c5e:	00000093          	li	ra,0
  100c62:	8106                	mv	sp,ra
  100c64:	8186                	mv	gp,ra
  100c66:	8206                	mv	tp,ra
  100c68:	8286                	mv	t0,ra
  100c6a:	8306                	mv	t1,ra
  100c6c:	8386                	mv	t2,ra
  100c6e:	8406                	mv	s0,ra
  100c70:	8486                	mv	s1,ra
  100c72:	8506                	mv	a0,ra
  100c74:	8586                	mv	a1,ra
  100c76:	8606                	mv	a2,ra
  100c78:	8686                	mv	a3,ra
  100c7a:	8706                	mv	a4,ra
  100c7c:	8786                	mv	a5,ra
  100c7e:	000ff117          	auipc	sp,0xff
  100c82:	38210113          	add	sp,sp,898 # 200000 <_stack_start>

00100c86 <_start>:
  100c86:	00000297          	auipc	t0,0x0
  100c8a:	1ea28293          	add	t0,t0,490 # 100e70 <time_increment>
  100c8e:	00001317          	auipc	t1,0x1
  100c92:	bf230313          	add	t1,t1,-1038 # 101880 <_bss_end>
  100c96:	0062d763          	bge	t0,t1,100ca4 <main_entry>

00100c9a <zero_loop>:
  100c9a:	0002a023          	sw	zero,0(t0)
  100c9e:	0291                	add	t0,t0,4
  100ca0:	fe535de3          	bge	t1,t0,100c9a <zero_loop>

00100ca4 <main_entry>:
  100ca4:	4501                	li	a0,0
  100ca6:	4581                	li	a1,0
  100ca8:	016000ef          	jal	100cbe <main>
  100cac:	000202b7          	lui	t0,0x20
  100cb0:	02a1                	add	t0,t0,8 # 20008 <tohost>
  100cb2:	4305                	li	t1,1
  100cb4:	0062a023          	sw	t1,0(t0)

00100cb8 <sleep_loop>:
  100cb8:	10500073          	wfi
  100cbc:	bff5                	j	100cb8 <sleep_loop>

00100cbe <main>:
  100cbe:	1141                	add	sp,sp,-16
  100cc0:	4501                	li	a0,0
  100cc2:	c606                	sw	ra,12(sp)
  100cc4:	c422                	sw	s0,8(sp)
  100cc6:	c226                	sw	s1,4(sp)
  100cc8:	32d1                	jal	10068c <pcount_enable>
  100cca:	30e1                	jal	100592 <pcount_reset>
  100ccc:	00000517          	auipc	a0,0x0
  100cd0:	12050513          	add	a0,a0,288 # 100dec <main+0x12e>
  100cd4:	e6aff0ef          	jal	10033e <puts>
  100cd8:	deadc537          	lui	a0,0xdeadc
  100cdc:	eef50513          	add	a0,a0,-273 # deadbeef <fromhost+0xde8dbedf>
  100ce0:	e76ff0ef          	jal	100356 <puthex>
  100ce4:	4529                	li	a0,10
  100ce6:	e4cff0ef          	jal	100332 <putchar>
  100cea:	baadf537          	lui	a0,0xbaadf
  100cee:	0535                	add	a0,a0,13 # baadf00d <fromhost+0xba8deffd>
  100cf0:	e66ff0ef          	jal	100356 <puthex>
  100cf4:	4529                	li	a0,10
  100cf6:	e3cff0ef          	jal	100332 <putchar>
  100cfa:	00000517          	auipc	a0,0x0
  100cfe:	10a50513          	add	a0,a0,266 # 100e04 <main+0x146>
  100d02:	e3cff0ef          	jal	10033e <puts>
  100d06:	00000497          	auipc	s1,0x0
  100d0a:	17a48493          	add	s1,s1,378 # 100e80 <B>
  100d0e:	00000417          	auipc	s0,0x0
  100d12:	27240413          	add	s0,s0,626 # 100f80 <A>
  100d16:	85a6                	mv	a1,s1
  100d18:	4741                	li	a4,16
  100d1a:	46c1                	li	a3,16
  100d1c:	4641                	li	a2,16
  100d1e:	8522                	mv	a0,s0
  100d20:	b64ff0ef          	jal	100084 <generate_matrices>
  100d24:	00000517          	auipc	a0,0x0
  100d28:	0fc50513          	add	a0,a0,252 # 100e20 <main+0x162>
  100d2c:	e12ff0ef          	jal	10033e <puts>
  100d30:	00000517          	auipc	a0,0x0
  100d34:	11050513          	add	a0,a0,272 # 100e40 <main+0x182>
  100d38:	e06ff0ef          	jal	10033e <puts>
  100d3c:	4505                	li	a0,1
  100d3e:	32b9                	jal	10068c <pcount_enable>
  100d40:	8626                	mv	a2,s1
  100d42:	85a2                	mv	a1,s0
  100d44:	47c1                	li	a5,16
  100d46:	4741                	li	a4,16
  100d48:	46c1                	li	a3,16
  100d4a:	00000517          	auipc	a0,0x0
  100d4e:	33650513          	add	a0,a0,822 # 101080 <C>
  100d52:	350d                	jal	100b74 <matmul_int8>
  100d54:	4501                	li	a0,0
  100d56:	3a1d                	jal	10068c <pcount_enable>
  100d58:	00000517          	auipc	a0,0x0
  100d5c:	10850513          	add	a0,a0,264 # 100e60 <main+0x1a2>
  100d60:	ddeff0ef          	jal	10033e <puts>
  100d64:	40b2                	lw	ra,12(sp)
  100d66:	4422                	lw	s0,8(sp)
  100d68:	4492                	lw	s1,4(sp)
  100d6a:	4501                	li	a0,0
  100d6c:	0141                	add	sp,sp,16
  100d6e:	8082                	ret
